target datalayout = "e-m:e-p270:32:32-p271:32:32-p272:64:64-i64:64-i128:128-f80:128-n8:16:32:64-S128"
target triple = "x86_64-pc-linux-gnu"

%struct.pac_s = type { %struct.pai_s, %struct.ecache_s, %struct.ecache_s, %struct.ecache_s, ptr, ptr, ptr, %struct.exp_grow_s, %struct.malloc_mutex_s, %struct.san_bump_alloc_s, %struct.atomic_zu_t, %struct.decay_s, %struct.decay_s, ptr, ptr, %struct.atomic_zu_t }
%struct.pai_s = type { ptr, ptr, ptr, ptr, ptr, ptr, ptr }
%struct.ecache_s = type { %struct.malloc_mutex_s, %struct.eset_s, %struct.eset_s, i32, i32, i8 }
%struct.eset_s = type { [4 x i64], [200 x %struct.eset_bin_s], [200 x %struct.eset_bin_stats_s], %struct.edata_list_inactive_t, %struct.atomic_zu_t, i32 }
%struct.eset_bin_s = type { %struct.edata_heap_t, %struct.edata_cmp_summary_s }
%struct.edata_heap_t = type { %struct.ph_s }
%struct.ph_s = type { ptr, i64 }
%struct.edata_cmp_summary_s = type { i64, i64 }
%struct.eset_bin_stats_s = type { %struct.atomic_zu_t, %struct.atomic_zu_t }
%struct.edata_list_inactive_t = type { %struct.anon.1 }
%struct.anon.1 = type { ptr }
%struct.exp_grow_s = type { i32, i32 }
%struct.malloc_mutex_s = type { %union.anon }
%union.anon = type { %struct.anon }
%struct.anon = type { %struct.mutex_prof_data_t, %union.pthread_mutex_t, %struct.atomic_b_t }
%struct.mutex_prof_data_t = type { %struct.nstime_t, %struct.nstime_t, i64, i64, i32, %struct.atomic_u32_t, i64, ptr, i64 }
%struct.nstime_t = type { i64 }
%struct.atomic_u32_t = type { i32 }
%union.pthread_mutex_t = type { %struct.__pthread_mutex_s }
%struct.__pthread_mutex_s = type { i32, i32, i32, i32, i32, i16, i16, %struct.__pthread_internal_list }
%struct.__pthread_internal_list = type { ptr, ptr }
%struct.atomic_b_t = type { i8 }
%struct.san_bump_alloc_s = type { %struct.malloc_mutex_s, ptr }
%struct.decay_s = type { %struct.malloc_mutex_s, i8, %struct.atomic_zd_t, %struct.nstime_t, %struct.nstime_t, i64, %struct.nstime_t, i64, i64, [200 x i64], i64 }
%struct.atomic_zd_t = type { i64 }
%struct.atomic_zu_t = type { i64 }
%struct.base_s = type { %struct.ehooks_s, %struct.ehooks_s, %struct.malloc_mutex_s, i8, i32, i64, ptr, [235 x %struct.edata_heap_t], i64, i64, i64, i64 }
%struct.ehooks_s = type { i32, %struct.atomic_p_t }
%struct.atomic_p_t = type { ptr }

@.str = private unnamed_addr constant [12 x i8] c"extent_grow\00", align 1
@.str.1 = private unnamed_addr constant [25 x i8] c"sanitizer_bump_allocator\00", align 1

; Function Attrs: alwaysinline nounwind uwtable
define internal i32 @atomic_enum_to_builtin(i32 noundef %0) #4 {
  %2 = alloca i32, align 4
  %3 = alloca i32, align 4
  store i32 %0, ptr %3, align 4, !tbaa !24
  %4 = load i32, ptr %3, align 4, !tbaa !24
  switch i32 %4, label %10 [
    i32 0, label %5
    i32 1, label %6
    i32 2, label %7
    i32 3, label %8
    i32 4, label %9
  ]

5:                                                ; preds = %1
  store i32 0, ptr %2, align 4
  br label %12

6:                                                ; preds = %1
  store i32 2, ptr %2, align 4
  br label %12

7:                                                ; preds = %1
  store i32 3, ptr %2, align 4
  br label %12

8:                                                ; preds = %1
  store i32 4, ptr %2, align 4
  br label %12

9:                                                ; preds = %1
  store i32 5, ptr %2, align 4
  br label %12

10:                                               ; preds = %1
  br label %11

11:                                               ; preds = %10
  unreachable

12:                                               ; preds = %5, %6, %7, %8, %9
  %13 = load i32, ptr %2, align 4
  ret i32 %13
}

; Function Attrs: inlinehint nounwind uwtable
define internal i32 @ehooks_ind_get(ptr noundef %0) #2 {
  %2 = alloca ptr, align 8
  store ptr %0, ptr %2, align 8, !tbaa !61
  %3 = load ptr, ptr %2, align 8, !tbaa !61
  %4 = getelementptr inbounds nuw %struct.ehooks_s, ptr %3, i32 0, i32 0
  %5 = load i32, ptr %4, align 8, !tbaa !83
  ret i32 %5
}

; Function Attrs: inlinehint nounwind uwtable
define internal zeroext i1 @san_bump_alloc_init(ptr noundef %0) #2 {
  %2 = alloca i1, align 1
  %3 = alloca ptr, align 8
  %4 = alloca i8, align 1
  %5 = alloca i32, align 4
  store ptr %0, ptr %3, align 8, !tbaa !51
  call void @llvm.lifetime.start.p0(i64 1, ptr %4) #8
  %6 = load ptr, ptr %3, align 8, !tbaa !51
  %7 = getelementptr inbounds nuw %struct.san_bump_alloc_s, ptr %6, i32 0, i32 0
  %8 = call zeroext i1 @je_malloc_mutex_init(ptr noundef %7, ptr noundef @.str.1, i32 noundef 17, i32 noundef 0)
  %9 = zext i1 %8 to i8
  store i8 %9, ptr %4, align 1, !tbaa !53
  %10 = load i8, ptr %4, align 1, !tbaa !53, !range !54, !noundef !55
  %11 = trunc i8 %10 to i1
  br i1 %11, label %12, label %13

12:                                               ; preds = %1
  store i1 true, ptr %2, align 1
  store i32 1, ptr %5, align 4
  br label %16

13:                                               ; preds = %1
  %14 = load ptr, ptr %3, align 8, !tbaa !51
  %15 = getelementptr inbounds nuw %struct.san_bump_alloc_s, ptr %14, i32 0, i32 1
  store ptr null, ptr %15, align 8, !tbaa !56
  store i1 false, ptr %2, align 1
  store i32 1, ptr %5, align 4
  br label %16

16:                                               ; preds = %13, %12
  call void @llvm.lifetime.end.p0(i64 1, ptr %4) #8
  %17 = load i1, ptr %2, align 1
  ret i1 %17
}

; Function Attrs: alwaysinline nounwind uwtable
define internal void @atomic_store_zu(ptr noundef %0, i64 noundef %1, i32 noundef %2) #4 {
  %4 = alloca ptr, align 8
  %5 = alloca i64, align 8
  %6 = alloca i32, align 4
  store ptr %0, ptr %4, align 8, !tbaa !17
  store i64 %1, ptr %5, align 8, !tbaa !18
  store i32 %2, ptr %6, align 4, !tbaa !24
  %7 = load ptr, ptr %4, align 8, !tbaa !17
  %8 = getelementptr inbounds nuw %struct.atomic_zu_t, ptr %7, i32 0, i32 0
  %9 = load i32, ptr %6, align 4, !tbaa !24
  %10 = call i32 @atomic_enum_to_builtin(i32 noundef %9)
  switch i32 %10, label %11 [
    i32 3, label %13
    i32 5, label %15
  ]

11:                                               ; preds = %3
  %12 = load i64, ptr %5, align 8
  store atomic i64 %12, ptr %8 monotonic, align 8
  br label %17

13:                                               ; preds = %3
  %14 = load i64, ptr %5, align 8
  store atomic i64 %14, ptr %8 release, align 8
  br label %17

15:                                               ; preds = %3
  %16 = load i64, ptr %5, align 8
  store atomic i64 %16, ptr %8 seq_cst, align 8
  br label %17

17:                                               ; preds = %15, %13, %11
  ret void
}

; Function Attrs: inlinehint nounwind uwtable
define internal i32 @base_ind_get(ptr noundef %0) #2 {
  %2 = alloca ptr, align 8
  store ptr %0, ptr %2, align 8, !tbaa !11
  %3 = load ptr, ptr %2, align 8, !tbaa !11
  %4 = getelementptr inbounds nuw %struct.base_s, ptr %3, i32 0, i32 0
  %5 = call i32 @ehooks_ind_get(ptr noundef %4)
  ret i32 %5
}

; Function Attrs: nounwind uwtable
define hidden zeroext i1 @je_pac_init(ptr noundef %0, ptr noundef %1, ptr noundef %2, ptr noundef %3, ptr noundef %4, ptr noundef %5, i64 noundef %6, i64 noundef %7, i64 noundef %8, ptr noundef %9, ptr noundef %10) #0 {
  %12 = alloca i1, align 1
  %13 = alloca ptr, align 8
  %14 = alloca ptr, align 8
  %15 = alloca ptr, align 8
  %16 = alloca ptr, align 8
  %17 = alloca ptr, align 8
  %18 = alloca ptr, align 8
  %19 = alloca i64, align 8
  %20 = alloca i64, align 8
  %21 = alloca i64, align 8
  %22 = alloca ptr, align 8
  %23 = alloca ptr, align 8
  %24 = alloca i32, align 4
  %25 = alloca i32, align 4
  store ptr %0, ptr %13, align 8, !tbaa !4
  store ptr %1, ptr %14, align 8, !tbaa !9
  store ptr %2, ptr %15, align 8, !tbaa !11
  store ptr %3, ptr %16, align 8, !tbaa !13
  store ptr %4, ptr %17, align 8, !tbaa !15
  store ptr %5, ptr %18, align 8, !tbaa !17
  store i64 %6, ptr %19, align 8, !tbaa !18
  store i64 %7, ptr %20, align 8, !tbaa !18
  store i64 %8, ptr %21, align 8, !tbaa !18
  store ptr %9, ptr %22, align 8, !tbaa !20
  store ptr %10, ptr %23, align 8, !tbaa !22
  call void @llvm.lifetime.start.p0(i64 4, ptr %24) #8
  %26 = load ptr, ptr %15, align 8, !tbaa !11
  %27 = call i32 @base_ind_get(ptr noundef %26)
  store i32 %27, ptr %24, align 4, !tbaa !24
  %28 = load ptr, ptr %13, align 8, !tbaa !4
  %29 = load ptr, ptr %14, align 8, !tbaa !9
  %30 = getelementptr inbounds nuw %struct.pac_s, ptr %29, i32 0, i32 1
  %31 = load i32, ptr %24, align 4, !tbaa !24
  %32 = call zeroext i1 @je_ecache_init(ptr noundef %28, ptr noundef %30, i32 noundef 1, i32 noundef %31, i1 noundef zeroext true)
  br i1 %32, label %33, label %34

33:                                               ; preds = %11
  store i1 true, ptr %12, align 1
  store i32 1, ptr %25, align 4
  br label %116

34:                                               ; preds = %11
  %35 = load ptr, ptr %13, align 8, !tbaa !4
  %36 = load ptr, ptr %14, align 8, !tbaa !9
  %37 = getelementptr inbounds nuw %struct.pac_s, ptr %36, i32 0, i32 2
  %38 = load i32, ptr %24, align 4, !tbaa !24
  %39 = call zeroext i1 @je_ecache_init(ptr noundef %35, ptr noundef %37, i32 noundef 2, i32 noundef %38, i1 noundef zeroext false)
  br i1 %39, label %40, label %41

40:                                               ; preds = %34
  store i1 true, ptr %12, align 1
  store i32 1, ptr %25, align 4
  br label %116

41:                                               ; preds = %34
  %42 = load ptr, ptr %13, align 8, !tbaa !4
  %43 = load ptr, ptr %14, align 8, !tbaa !9
  %44 = getelementptr inbounds nuw %struct.pac_s, ptr %43, i32 0, i32 3
  %45 = load i32, ptr %24, align 4, !tbaa !24
  %46 = call zeroext i1 @je_ecache_init(ptr noundef %42, ptr noundef %44, i32 noundef 3, i32 noundef %45, i1 noundef zeroext false)
  br i1 %46, label %47, label %48

47:                                               ; preds = %41
  store i1 true, ptr %12, align 1
  store i32 1, ptr %25, align 4
  br label %116

48:                                               ; preds = %41
  %49 = load ptr, ptr %14, align 8, !tbaa !9
  %50 = getelementptr inbounds nuw %struct.pac_s, ptr %49, i32 0, i32 7
  call void @je_exp_grow_init(ptr noundef %50)
  %51 = load ptr, ptr %14, align 8, !tbaa !9
  %52 = getelementptr inbounds nuw %struct.pac_s, ptr %51, i32 0, i32 8
  %53 = call zeroext i1 @je_malloc_mutex_init(ptr noundef %52, ptr noundef @.str, i32 noundef 17, i32 noundef 0)
  br i1 %53, label %54, label %55

54:                                               ; preds = %48
  store i1 true, ptr %12, align 1
  store i32 1, ptr %25, align 4
  br label %116

55:                                               ; preds = %48
  %56 = load ptr, ptr %14, align 8, !tbaa !9
  %57 = getelementptr inbounds nuw %struct.pac_s, ptr %56, i32 0, i32 10
  %58 = load i64, ptr %19, align 8, !tbaa !18
  call void @atomic_store_zu(ptr noundef %57, i64 noundef %58, i32 noundef 0)
  %59 = load ptr, ptr %14, align 8, !tbaa !9
  %60 = getelementptr inbounds nuw %struct.pac_s, ptr %59, i32 0, i32 11
  %61 = load ptr, ptr %18, align 8, !tbaa !17
  %62 = load i64, ptr %20, align 8, !tbaa !18
  %63 = call zeroext i1 @je_decay_init(ptr noundef %60, ptr noundef %61, i64 noundef %62)
  br i1 %63, label %64, label %65

64:                                               ; preds = %55
  store i1 true, ptr %12, align 1
  store i32 1, ptr %25, align 4
  br label %116

65:                                               ; preds = %55
  %66 = load ptr, ptr %14, align 8, !tbaa !9
  %67 = getelementptr inbounds nuw %struct.pac_s, ptr %66, i32 0, i32 12
  %68 = load ptr, ptr %18, align 8, !tbaa !17
  %69 = load i64, ptr %21, align 8, !tbaa !18
  %70 = call zeroext i1 @je_decay_init(ptr noundef %67, ptr noundef %68, i64 noundef %69)
  br i1 %70, label %71, label %72

71:                                               ; preds = %65
  store i1 true, ptr %12, align 1
  store i32 1, ptr %25, align 4
  br label %116

72:                                               ; preds = %65
  %73 = load ptr, ptr %14, align 8, !tbaa !9
  %74 = getelementptr inbounds nuw %struct.pac_s, ptr %73, i32 0, i32 9
  %75 = call zeroext i1 @san_bump_alloc_init(ptr noundef %74)
  br i1 %75, label %76, label %77

76:                                               ; preds = %72
  store i1 true, ptr %12, align 1
  store i32 1, ptr %25, align 4
  br label %116

77:                                               ; preds = %72
  %78 = load ptr, ptr %15, align 8, !tbaa !11
  %79 = load ptr, ptr %14, align 8, !tbaa !9
  %80 = getelementptr inbounds nuw %struct.pac_s, ptr %79, i32 0, i32 4
  store ptr %78, ptr %80, align 8, !tbaa !26
  %81 = load ptr, ptr %16, align 8, !tbaa !13
  %82 = load ptr, ptr %14, align 8, !tbaa !9
  %83 = getelementptr inbounds nuw %struct.pac_s, ptr %82, i32 0, i32 5
  store ptr %81, ptr %83, align 8, !tbaa !40
  %84 = load ptr, ptr %17, align 8, !tbaa !15
  %85 = load ptr, ptr %14, align 8, !tbaa !9
  %86 = getelementptr inbounds nuw %struct.pac_s, ptr %85, i32 0, i32 6
  store ptr %84, ptr %86, align 8, !tbaa !41
  %87 = load ptr, ptr %22, align 8, !tbaa !20
  %88 = load ptr, ptr %14, align 8, !tbaa !9
  %89 = getelementptr inbounds nuw %struct.pac_s, ptr %88, i32 0, i32 14
  store ptr %87, ptr %89, align 8, !tbaa !42
  %90 = load ptr, ptr %23, align 8, !tbaa !22
  %91 = load ptr, ptr %14, align 8, !tbaa !9
  %92 = getelementptr inbounds nuw %struct.pac_s, ptr %91, i32 0, i32 13
  store ptr %90, ptr %92, align 8, !tbaa !43
  %93 = load ptr, ptr %14, align 8, !tbaa !9
  %94 = getelementptr inbounds nuw %struct.pac_s, ptr %93, i32 0, i32 15
  call void @atomic_store_zu(ptr noundef %94, i64 noundef 0, i32 noundef 0)
  %95 = load ptr, ptr %14, align 8, !tbaa !9
  %96 = getelementptr inbounds nuw %struct.pac_s, ptr %95, i32 0, i32 0
  %97 = getelementptr inbounds nuw %struct.pai_s, ptr %96, i32 0, i32 0
  store ptr @pac_alloc_impl, ptr %97, align 8, !tbaa !44
  %98 = load ptr, ptr %14, align 8, !tbaa !9
  %99 = getelementptr inbounds nuw %struct.pac_s, ptr %98, i32 0, i32 0
  %100 = getelementptr inbounds nuw %struct.pai_s, ptr %99, i32 0, i32 1
  store ptr @je_pai_alloc_batch_default, ptr %100, align 8, !tbaa !45
  %101 = load ptr, ptr %14, align 8, !tbaa !9
  %102 = getelementptr inbounds nuw %struct.pac_s, ptr %101, i32 0, i32 0
  %103 = getelementptr inbounds nuw %struct.pai_s, ptr %102, i32 0, i32 2
  store ptr @pac_expand_impl, ptr %103, align 8, !tbaa !46
  %104 = load ptr, ptr %14, align 8, !tbaa !9
  %105 = getelementptr inbounds nuw %struct.pac_s, ptr %104, i32 0, i32 0
  %106 = getelementptr inbounds nuw %struct.pai_s, ptr %105, i32 0, i32 3
  store ptr @pac_shrink_impl, ptr %106, align 8, !tbaa !47
  %107 = load ptr, ptr %14, align 8, !tbaa !9
  %108 = getelementptr inbounds nuw %struct.pac_s, ptr %107, i32 0, i32 0
  %109 = getelementptr inbounds nuw %struct.pai_s, ptr %108, i32 0, i32 4
  store ptr @pac_dalloc_impl, ptr %109, align 8, !tbaa !48
  %110 = load ptr, ptr %14, align 8, !tbaa !9
  %111 = getelementptr inbounds nuw %struct.pac_s, ptr %110, i32 0, i32 0
  %112 = getelementptr inbounds nuw %struct.pai_s, ptr %111, i32 0, i32 5
  store ptr @je_pai_dalloc_batch_default, ptr %112, align 8, !tbaa !49
  %113 = load ptr, ptr %14, align 8, !tbaa !9
  %114 = getelementptr inbounds nuw %struct.pac_s, ptr %113, i32 0, i32 0
  %115 = getelementptr inbounds nuw %struct.pai_s, ptr %114, i32 0, i32 6
  store ptr @pac_time_until_deferred_work, ptr %115, align 8, !tbaa !50
  store i1 false, ptr %12, align 1
  store i32 1, ptr %25, align 4
  br label %116

116:                                              ; preds = %77, %76, %71, %64, %54, %47, %40, %33
  call void @llvm.lifetime.end.p0(i64 4, ptr %24) #8
  %117 = load i1, ptr %12, align 1
  ret i1 %117
}