; Function Attrs: nounwind uwtable
define hidden noundef zeroext i1 @je_pac_init(ptr noundef %0, ptr noundef %1, ptr noundef %2, ptr noundef %3, ptr noundef %4, ptr noundef %5, i64 noundef %6, i64 noundef %7, i64 noundef %8, ptr noundef %9, ptr noundef %10) local_unnamed_addr #0 {
  %.val = load i32, ptr %2, align 8, !tbaa !4
  %12 = getelementptr inbounds nuw i8, ptr %1, i64 56
  %13 = tail call zeroext i1 @je_ecache_init(ptr noundef %0, ptr noundef nonnull %12, i32 noundef 1, i32 noundef %.val, i1 noundef zeroext true) #9
  br i1 %13, label %san_bump_alloc_init.exit.thread, label %14

14:                                               ; preds = %11
  %15 = getelementptr inbounds nuw i8, ptr %1, i64 19496
  %16 = tail call zeroext i1 @je_ecache_init(ptr noundef %0, ptr noundef nonnull %15, i32 noundef 2, i32 noundef %.val, i1 noundef zeroext false) #9
  br i1 %16, label %san_bump_alloc_init.exit.thread, label %17

17:                                               ; preds = %14
  %18 = getelementptr inbounds nuw i8, ptr %1, i64 38936
  %19 = tail call zeroext i1 @je_ecache_init(ptr noundef %0, ptr noundef nonnull %18, i32 noundef 3, i32 noundef %.val, i1 noundef zeroext false) #9
  br i1 %19, label %san_bump_alloc_init.exit.thread, label %20

20:                                               ; preds = %17
  %21 = getelementptr inbounds nuw i8, ptr %1, i64 58400
  tail call void @je_exp_grow_init(ptr noundef nonnull %21) #9
  %22 = getelementptr inbounds nuw i8, ptr %1, i64 58408
  %23 = tail call zeroext i1 @je_malloc_mutex_init(ptr noundef nonnull %22, ptr noundef nonnull @.str, i32 noundef 17, i32 noundef 0) #9
  br i1 %23, label %san_bump_alloc_init.exit.thread, label %24

24:                                               ; preds = %20
  %25 = getelementptr inbounds nuw i8, ptr %1, i64 58640
  store atomic i64 %6, ptr %25 monotonic, align 8
  %26 = getelementptr inbounds nuw i8, ptr %1, i64 58648
  %27 = tail call zeroext i1 @je_decay_init(ptr noundef nonnull %26, ptr noundef %5, i64 noundef %7) #9
  br i1 %27, label %san_bump_alloc_init.exit.thread, label %28

28:                                               ; preds = %24
  %29 = getelementptr inbounds nuw i8, ptr %1, i64 60432
  %30 = tail call zeroext i1 @je_decay_init(ptr noundef nonnull %29, ptr noundef %5, i64 noundef %8) #9
  br i1 %30, label %san_bump_alloc_init.exit.thread, label %31

31:                                               ; preds = %28
  %32 = getelementptr inbounds nuw i8, ptr %1, i64 58520
  %33 = tail call zeroext i1 @je_malloc_mutex_init(ptr noundef nonnull %32, ptr noundef nonnull @.str.1, i32 noundef 17, i32 noundef 0) #9
  br i1 %33, label %san_bump_alloc_init.exit.thread, label %34

34:                                               ; preds = %31
  %35 = getelementptr inbounds nuw i8, ptr %1, i64 58632
  store ptr null, ptr %35, align 8, !tbaa !11
  %36 = getelementptr inbounds nuw i8, ptr %1, i64 58376
  store ptr %2, ptr %36, align 8, !tbaa !15
  %37 = getelementptr inbounds nuw i8, ptr %1, i64 58384
  store ptr %3, ptr %37, align 8, !tbaa !32
  %38 = getelementptr inbounds nuw i8, ptr %1, i64 58392
  store ptr %4, ptr %38, align 8, !tbaa !33
  %39 = getelementptr inbounds nuw i8, ptr %1, i64 62224
  store ptr %9, ptr %39, align 8, !tbaa !34
  %40 = getelementptr inbounds nuw i8, ptr %1, i64 62216
  store ptr %10, ptr %40, align 8, !tbaa !35
  %41 = getelementptr inbounds nuw i8, ptr %1, i64 62232
  store atomic i64 0, ptr %41 monotonic, align 8
  store ptr @pac_alloc_impl, ptr %1, align 8, !tbaa !36
  %42 = getelementptr inbounds nuw i8, ptr %1, i64 8
  store ptr @je_pai_alloc_batch_default, ptr %42, align 8, !tbaa !37
  %43 = getelementptr inbounds nuw i8, ptr %1, i64 16
  store ptr @pac_expand_impl, ptr %43, align 8, !tbaa !38
  %44 = getelementptr inbounds nuw i8, ptr %1, i64 24
  store ptr @pac_shrink_impl, ptr %44, align 8, !tbaa !39
  %45 = getelementptr inbounds nuw i8, ptr %1, i64 32
  store ptr @pac_dalloc_impl, ptr %45, align 8, !tbaa !40
  %46 = getelementptr inbounds nuw i8, ptr %1, i64 40
  store ptr @je_pai_dalloc_batch_default, ptr %46, align 8, !tbaa !41
  %47 = getelementptr inbounds nuw i8, ptr %1, i64 48
  store ptr @pac_time_until_deferred_work, ptr %47, align 8, !tbaa !42
  br label %san_bump_alloc_init.exit.thread

san_bump_alloc_init.exit.thread:                  ; preds = %31, %28, %24, %20, %17, %14, %11, %34
  %.0 = phi i1 [ false, %34 ], [ true, %11 ], [ true, %14 ], [ true, %17 ], [ true, %20 ], [ true, %24 ], [ true, %28 ], [ true, %31 ]
  ret i1 %.0
}